target datalayout = "e-m:e-p270:32:32-p271:32:32-p272:64:64-i64:64-i128:128-f80:128-n8:16:32:64-S128"
target triple = "x86_64-pc-linux-gnu"

%struct.SurfaceDataRasInfo = type { %struct.SurfaceDataBounds, ptr, i32, i32, i32, i32, ptr, ptr, ptr, ptr, ptr, ptr, i32, %union.anon.0 }
%struct.SurfaceDataBounds = type { i32, i32, i32, i32 }
%union.anon.0 = type { ptr, [56 x i8] }
%struct.ImageRef = type { ptr, ptr, i32, i32, i32, i32, i32, i32 }

@mul8table = external global [256 x [256 x i8]], align 16

; Function Attrs: nounwind uwtable
define hidden void @IntRgbxDrawGlyphListAA(ptr noundef %0, ptr noundef %1, i32 noundef %2, i32 noundef %3, i32 noundef %4, i32 noundef %5, i32 noundef %6, i32 noundef %7, i32 noundef %8, ptr noundef %9, ptr noundef %10) #1 {
  %12 = alloca ptr, align 8
  %13 = alloca ptr, align 8
  %14 = alloca i32, align 4
  %15 = alloca i32, align 4
  %16 = alloca i32, align 4
  %17 = alloca i32, align 4
  %18 = alloca i32, align 4
  %19 = alloca i32, align 4
  %20 = alloca i32, align 4
  %21 = alloca ptr, align 8
  %22 = alloca ptr, align 8
  %23 = alloca i32, align 4
  %24 = alloca i32, align 4
  %25 = alloca ptr, align 8
  %26 = alloca i32, align 4
  %27 = alloca i32, align 4
  %28 = alloca i32, align 4
  %29 = alloca i32, align 4
  %30 = alloca ptr, align 8
  %31 = alloca i32, align 4
  %32 = alloca i32, align 4
  %33 = alloca i32, align 4
  %34 = alloca i32, align 4
  %35 = alloca i32, align 4
  %36 = alloca i32, align 4
  %37 = alloca i32, align 4
  %38 = alloca i32, align 4
  %39 = alloca i32, align 4
  %40 = alloca i32, align 4
  %41 = alloca i32, align 4
  %42 = alloca i32, align 4
  %43 = alloca i32, align 4
  %44 = alloca i32, align 4
  store ptr %0, ptr %12, align 8
  store ptr %1, ptr %13, align 8
  store i32 %2, ptr %14, align 4
  store i32 %3, ptr %15, align 4
  store i32 %4, ptr %16, align 4
  store i32 %5, ptr %17, align 4
  store i32 %6, ptr %18, align 4
  store i32 %7, ptr %19, align 4
  store i32 %8, ptr %20, align 4
  store ptr %9, ptr %21, align 8
  store ptr %10, ptr %22, align 8
  %45 = load ptr, ptr %12, align 8
  %46 = getelementptr inbounds %struct.SurfaceDataRasInfo, ptr %45, i32 0, i32 4
  %47 = load i32, ptr %46, align 8
  store i32 %47, ptr %24, align 4
  br label %48

48:                                               ; preds = %11
  %49 = load i32, ptr %16, align 4
  %50 = and i32 %49, 255
  store i32 %50, ptr %29, align 4
  %51 = load i32, ptr %16, align 4
  %52 = ashr i32 %51, 8
  %53 = and i32 %52, 255
  store i32 %53, ptr %28, align 4
  %54 = load i32, ptr %16, align 4
  %55 = ashr i32 %54, 16
  %56 = and i32 %55, 255
  store i32 %56, ptr %27, align 4
  %57 = load i32, ptr %16, align 4
  %58 = ashr i32 %57, 24
  %59 = and i32 %58, 255
  store i32 %59, ptr %26, align 4
  br label %60

60:                                               ; preds = %48
  store i32 0, ptr %23, align 4
  br label %61

61:                                               ; preds = %311, %60
  %62 = load i32, ptr %23, align 4
  %63 = load i32, ptr %14, align 4
  %64 = icmp slt i32 %62, %63
  br i1 %64, label %65, label %314

65:                                               ; preds = %61
  %66 = load ptr, ptr %13, align 8
  %67 = load i32, ptr %23, align 4
  %68 = sext i32 %67 to i64
  %69 = getelementptr inbounds %struct.ImageRef, ptr %66, i64 %68
  %70 = getelementptr inbounds %struct.ImageRef, ptr %69, i32 0, i32 1
  %71 = load ptr, ptr %70, align 8
  store ptr %71, ptr %30, align 8
  %72 = load ptr, ptr %30, align 8
  %73 = icmp ne ptr %72, null
  br i1 %73, label %75, label %74

74:                                               ; preds = %65
  br label %311

75:                                               ; preds = %65
  %76 = load ptr, ptr %13, align 8
  %77 = load i32, ptr %23, align 4
  %78 = sext i32 %77 to i64
  %79 = getelementptr inbounds %struct.ImageRef, ptr %76, i64 %78
  %80 = getelementptr inbounds %struct.ImageRef, ptr %79, i32 0, i32 2
  %81 = load i32, ptr %80, align 8
  store i32 %81, ptr %31, align 4
  %82 = load ptr, ptr %13, align 8
  %83 = load i32, ptr %23, align 4
  %84 = sext i32 %83 to i64
  %85 = getelementptr inbounds %struct.ImageRef, ptr %82, i64 %84
  %86 = getelementptr inbounds %struct.ImageRef, ptr %85, i32 0, i32 6
  %87 = load i32, ptr %86, align 8
  store i32 %87, ptr %32, align 4
  %88 = load ptr, ptr %13, align 8
  %89 = load i32, ptr %23, align 4
  %90 = sext i32 %89 to i64
  %91 = getelementptr inbounds %struct.ImageRef, ptr %88, i64 %90
  %92 = getelementptr inbounds %struct.ImageRef, ptr %91, i32 0, i32 7
  %93 = load i32, ptr %92, align 4
  store i32 %93, ptr %33, align 4
  %94 = load ptr, ptr %13, align 8
  %95 = load i32, ptr %23, align 4
  %96 = sext i32 %95 to i64
  %97 = getelementptr inbounds %struct.ImageRef, ptr %94, i64 %96
  %98 = getelementptr inbounds %struct.ImageRef, ptr %97, i32 0, i32 4
  %99 = load i32, ptr %98, align 8
  store i32 %99, ptr %34, align 4
  %100 = load ptr, ptr %13, align 8
  %101 = load i32, ptr %23, align 4
  %102 = sext i32 %101 to i64
  %103 = getelementptr inbounds %struct.ImageRef, ptr %100, i64 %102
  %104 = getelementptr inbounds %struct.ImageRef, ptr %103, i32 0, i32 5
  %105 = load i32, ptr %104, align 4
  store i32 %105, ptr %35, align 4
  %106 = load i32, ptr %32, align 4
  %107 = load i32, ptr %34, align 4
  %108 = add nsw i32 %106, %107
  store i32 %108, ptr %36, align 4
  %109 = load i32, ptr %33, align 4
  %110 = load i32, ptr %35, align 4
  %111 = add nsw i32 %109, %110
  store i32 %111, ptr %37, align 4
  %112 = load i32, ptr %32, align 4
  %113 = load i32, ptr %17, align 4
  %114 = icmp slt i32 %112, %113
  br i1 %114, label %115, label %124

115:                                              ; preds = %75
  %116 = load i32, ptr %17, align 4
  %117 = load i32, ptr %32, align 4
  %118 = sub nsw i32 %116, %117
  %119 = mul nsw i32 %118, 1
  %120 = load ptr, ptr %30, align 8
  %121 = sext i32 %119 to i64
  %122 = getelementptr inbounds i8, ptr %120, i64 %121
  store ptr %122, ptr %30, align 8
  %123 = load i32, ptr %17, align 4
  store i32 %123, ptr %32, align 4
  br label %124

124:                                              ; preds = %115, %75
  %125 = load i32, ptr %33, align 4
  %126 = load i32, ptr %18, align 4
  %127 = icmp slt i32 %125, %126
  br i1 %127, label %128, label %138

128:                                              ; preds = %124
  %129 = load i32, ptr %18, align 4
  %130 = load i32, ptr %33, align 4
  %131 = sub nsw i32 %129, %130
  %132 = load i32, ptr %31, align 4
  %133 = mul nsw i32 %131, %132
  %134 = load ptr, ptr %30, align 8
  %135 = sext i32 %133 to i64
  %136 = getelementptr inbounds i8, ptr %134, i64 %135
  store ptr %136, ptr %30, align 8
  %137 = load i32, ptr %18, align 4
  store i32 %137, ptr %33, align 4
  br label %138

138:                                              ; preds = %128, %124
  %139 = load i32, ptr %36, align 4
  %140 = load i32, ptr %19, align 4
  %141 = icmp sgt i32 %139, %140
  br i1 %141, label %142, label %144

142:                                              ; preds = %138
  %143 = load i32, ptr %19, align 4
  store i32 %143, ptr %36, align 4
  br label %144

144:                                              ; preds = %142, %138
  %145 = load i32, ptr %37, align 4
  %146 = load i32, ptr %20, align 4
  %147 = icmp sgt i32 %145, %146
  br i1 %147, label %148, label %150

148:                                              ; preds = %144
  %149 = load i32, ptr %20, align 4
  store i32 %149, ptr %37, align 4
  br label %150

150:                                              ; preds = %148, %144
  %151 = load i32, ptr %36, align 4
  %152 = load i32, ptr %32, align 4
  %153 = icmp sle i32 %151, %152
  br i1 %153, label %158, label %154

154:                                              ; preds = %150
  %155 = load i32, ptr %37, align 4
  %156 = load i32, ptr %33, align 4
  %157 = icmp sle i32 %155, %156
  br i1 %157, label %158, label %159

158:                                              ; preds = %154, %150
  br label %311

159:                                              ; preds = %154
  %160 = load i32, ptr %36, align 4
  %161 = load i32, ptr %32, align 4
  %162 = sub nsw i32 %160, %161
  store i32 %162, ptr %34, align 4
  %163 = load i32, ptr %37, align 4
  %164 = load i32, ptr %33, align 4
  %165 = sub nsw i32 %163, %164
  store i32 %165, ptr %35, align 4
  %166 = load ptr, ptr %12, align 8
  %167 = getelementptr inbounds %struct.SurfaceDataRasInfo, ptr %166, i32 0, i32 1
  %168 = load ptr, ptr %167, align 8
  %169 = ptrtoint ptr %168 to i64
  %170 = load i32, ptr %33, align 4
  %171 = sext i32 %170 to i64
  %172 = load i32, ptr %24, align 4
  %173 = sext i32 %172 to i64
  %174 = mul nsw i64 %171, %173
  %175 = load i32, ptr %32, align 4
  %176 = sext i32 %175 to i64
  %177 = mul nsw i64 %176, 4
  %178 = add nsw i64 %174, %177
  %179 = add nsw i64 %169, %178
  %180 = inttoptr i64 %179 to ptr
  store ptr %180, ptr %25, align 8
  br label %181

181:                                              ; preds = %306, %159
  store i32 0, ptr %38, align 4
  br label %182

182:                                              ; preds = %290, %181
  br label %183

183:                                              ; preds = %182
  %184 = load ptr, ptr %30, align 8
  %185 = load i32, ptr %38, align 4
  %186 = sext i32 %185 to i64
  %187 = getelementptr inbounds i8, ptr %184, i64 %186
  %188 = load i8, ptr %187, align 1
  %189 = zext i8 %188 to i32
  store i32 %189, ptr %42, align 4
  %190 = load i32, ptr %42, align 4
  %191 = icmp ne i32 %190, 0
  br i1 %191, label %192, label %288

192:                                              ; preds = %183
  %193 = load i32, ptr %42, align 4
  %194 = icmp slt i32 %193, 255
  br i1 %194, label %195, label %281

195:                                              ; preds = %192
  %196 = load i32, ptr %42, align 4
  %197 = sub nsw i32 255, %196
  store i32 %197, ptr %43, align 4
  br label %198

198:                                              ; preds = %195
  %199 = load ptr, ptr %25, align 8
  %200 = load i32, ptr %38, align 4
  %201 = sext i32 %200 to i64
  %202 = getelementptr inbounds i32, ptr %199, i64 %201
  %203 = load i32, ptr %202, align 4
  store i32 %203, ptr %44, align 4
  br label %204

204:                                              ; preds = %198
  %205 = load i32, ptr %44, align 4
  %206 = ashr i32 %205, 8
  %207 = and i32 %206, 255
  store i32 %207, ptr %41, align 4
  %208 = load i32, ptr %44, align 4
  %209 = ashr i32 %208, 16
  %210 = and i32 %209, 255
  store i32 %210, ptr %40, align 4
  %211 = load i32, ptr %44, align 4
  %212 = ashr i32 %211, 24
  %213 = and i32 %212, 255
  store i32 %213, ptr %39, align 4
  br label %214

214:                                              ; preds = %204
  br label %215

215:                                              ; preds = %214
  br label %216

216:                                              ; preds = %215
  %217 = load i32, ptr %43, align 4
  %218 = sext i32 %217 to i64
  %219 = getelementptr inbounds [256 x [256 x i8]], ptr @mul8table, i64 0, i64 %218
  %220 = load i32, ptr %39, align 4
  %221 = sext i32 %220 to i64
  %222 = getelementptr inbounds [256 x i8], ptr %219, i64 0, i64 %221
  %223 = load i8, ptr %222, align 1
  %224 = zext i8 %223 to i32
  %225 = load i32, ptr %42, align 4
  %226 = sext i32 %225 to i64
  %227 = getelementptr inbounds [256 x [256 x i8]], ptr @mul8table, i64 0, i64 %226
  %228 = load i32, ptr %27, align 4
  %229 = sext i32 %228 to i64
  %230 = getelementptr inbounds [256 x i8], ptr %227, i64 0, i64 %229
  %231 = load i8, ptr %230, align 1
  %232 = zext i8 %231 to i32
  %233 = add nsw i32 %224, %232
  store i32 %233, ptr %39, align 4
  %234 = load i32, ptr %43, align 4
  %235 = sext i32 %234 to i64
  %236 = getelementptr inbounds [256 x [256 x i8]], ptr @mul8table, i64 0, i64 %235
  %237 = load i32, ptr %40, align 4
  %238 = sext i32 %237 to i64
  %239 = getelementptr inbounds [256 x i8], ptr %236, i64 0, i64 %238
  %240 = load i8, ptr %239, align 1
  %241 = zext i8 %240 to i32
  %242 = load i32, ptr %42, align 4
  %243 = sext i32 %242 to i64
  %244 = getelementptr inbounds [256 x [256 x i8]], ptr @mul8table, i64 0, i64 %243
  %245 = load i32, ptr %28, align 4
  %246 = sext i32 %245 to i64
  %247 = getelementptr inbounds [256 x i8], ptr %244, i64 0, i64 %246
  %248 = load i8, ptr %247, align 1
  %249 = zext i8 %248 to i32
  %250 = add nsw i32 %241, %249
  store i32 %250, ptr %40, align 4
  %251 = load i32, ptr %43, align 4
  %252 = sext i32 %251 to i64
  %253 = getelementptr inbounds [256 x [256 x i8]], ptr @mul8table, i64 0, i64 %252
  %254 = load i32, ptr %41, align 4
  %255 = sext i32 %254 to i64
  %256 = getelementptr inbounds [256 x i8], ptr %253, i64 0, i64 %255
  %257 = load i8, ptr %256, align 1
  %258 = zext i8 %257 to i32
  %259 = load i32, ptr %42, align 4
  %260 = sext i32 %259 to i64
  %261 = getelementptr inbounds [256 x [256 x i8]], ptr @mul8table, i64 0, i64 %260
  %262 = load i32, ptr %29, align 4
  %263 = sext i32 %262 to i64
  %264 = getelementptr inbounds [256 x i8], ptr %261, i64 0, i64 %263
  %265 = load i8, ptr %264, align 1
  %266 = zext i8 %265 to i32
  %267 = add nsw i32 %258, %266
  store i32 %267, ptr %41, align 4
  br label %268

268:                                              ; preds = %216
  %269 = load i32, ptr %39, align 4
  %270 = shl i32 %269, 8
  %271 = load i32, ptr %40, align 4
  %272 = or i32 %270, %271
  %273 = shl i32 %272, 8
  %274 = load i32, ptr %41, align 4
  %275 = or i32 %273, %274
  %276 = shl i32 %275, 8
  %277 = load ptr, ptr %25, align 8
  %278 = load i32, ptr %38, align 4
  %279 = sext i32 %278 to i64
  %280 = getelementptr inbounds i32, ptr %277, i64 %279
  store i32 %276, ptr %280, align 4
  br label %287

281:                                              ; preds = %192
  %282 = load i32, ptr %15, align 4
  %283 = load ptr, ptr %25, align 8
  %284 = load i32, ptr %38, align 4
  %285 = sext i32 %284 to i64
  %286 = getelementptr inbounds i32, ptr %283, i64 %285
  store i32 %282, ptr %286, align 4
  br label %287

287:                                              ; preds = %281, %268
  br label %288

288:                                              ; preds = %287, %183
  br label %289

289:                                              ; preds = %288
  br label %290

290:                                              ; preds = %289
  %291 = load i32, ptr %38, align 4
  %292 = add nsw i32 %291, 1
  store i32 %292, ptr %38, align 4
  %293 = load i32, ptr %34, align 4
  %294 = icmp slt i32 %292, %293
  br i1 %294, label %182, label %295, !llvm.loop !61

295:                                              ; preds = %290
  %296 = load ptr, ptr %25, align 8
  %297 = ptrtoint ptr %296 to i64
  %298 = load i32, ptr %24, align 4
  %299 = sext i32 %298 to i64
  %300 = add nsw i64 %297, %299
  %301 = inttoptr i64 %300 to ptr
  store ptr %301, ptr %25, align 8
  %302 = load i32, ptr %31, align 4
  %303 = load ptr, ptr %30, align 8
  %304 = sext i32 %302 to i64
  %305 = getelementptr inbounds i8, ptr %303, i64 %304
  store ptr %305, ptr %30, align 8
  br label %306

306:                                              ; preds = %295
  %307 = load i32, ptr %35, align 4
  %308 = add nsw i32 %307, -1
  store i32 %308, ptr %35, align 4
  %309 = icmp sgt i32 %308, 0
  br i1 %309, label %181, label %310, !llvm.loop !62

310:                                              ; preds = %306
  br label %311

311:                                              ; preds = %310, %158, %74
  %312 = load i32, ptr %23, align 4
  %313 = add nsw i32 %312, 1
  store i32 %313, ptr %23, align 4
  br label %61, !llvm.loop !63

314:                                              ; preds = %61
  ret void
}