; Function Attrs: nofree norecurse nosync nounwind memory(readwrite, inaccessiblemem: none) uwtable
define hidden void @IntRgbxDrawGlyphListAA(ptr nocapture noundef readonly %0, ptr nocapture noundef readonly %1, i32 noundef %2, i32 noundef %3, i32 noundef %4, i32 noundef %5, i32 noundef %6, i32 noundef %7, i32 noundef %8, ptr nocapture readnone %9, ptr nocapture readnone %10) #1 {
  %12 = icmp sgt i32 %2, 0
  br i1 %12, label %.lr.ph, label %._crit_edge

.lr.ph:                                           ; preds = %11
  %13 = lshr i32 %4, 16
  %14 = and i32 %13, 255
  %15 = lshr i32 %4, 8
  %16 = and i32 %15, 255
  %17 = and i32 %4, 255
  %18 = getelementptr inbounds i8, ptr %0, i64 32
  %19 = load i32, ptr %18, align 8
  %20 = getelementptr inbounds i8, ptr %0, i64 16
  %21 = sext i32 %19 to i64
  %22 = zext nneg i32 %14 to i64
  %23 = zext nneg i32 %16 to i64
  %24 = zext nneg i32 %17 to i64
  %wide.trip.count124 = zext nneg i32 %2 to i64
  br label %25

25:                                               ; preds = %.lr.ph, %.loopexit
  %indvars.iv121 = phi i64 [ 0, %.lr.ph ], [ %indvars.iv.next122, %.loopexit ]
  %26 = getelementptr inbounds %struct.ImageRef, ptr %1, i64 %indvars.iv121
  %27 = getelementptr inbounds i8, ptr %26, i64 8
  %28 = load ptr, ptr %27, align 8
  %.not = icmp eq ptr %28, null
  br i1 %.not, label %.loopexit, label %29

29:                                               ; preds = %25
  %30 = getelementptr inbounds i8, ptr %26, i64 32
  %31 = load i32, ptr %30, align 8
  %32 = getelementptr inbounds i8, ptr %26, i64 36
  %33 = load i32, ptr %32, align 4
  %34 = getelementptr inbounds i8, ptr %26, i64 24
  %35 = load i32, ptr %34, align 8
  %36 = getelementptr inbounds i8, ptr %26, i64 28
  %37 = load i32, ptr %36, align 4
  %38 = add nsw i32 %35, %31
  %39 = add nsw i32 %37, %33
  %.094 = tail call i32 @llvm.smax.i32(i32 %31, i32 %5)
  %.095 = tail call i32 @llvm.smax.i32(i32 %33, i32 %6)
  %.098 = tail call i32 @llvm.smin.i32(i32 %38, i32 %7)
  %.097 = tail call i32 @llvm.smin.i32(i32 %39, i32 %8)
  %.not114 = icmp sgt i32 %.098, %.094
  %.not115 = icmp sgt i32 %.097, %.095
  %or.cond = select i1 %.not114, i1 %.not115, i1 false
  br i1 %or.cond, label %40, label %.loopexit

40:                                               ; preds = %29
  %41 = getelementptr inbounds i8, ptr %26, i64 16
  %42 = load i32, ptr %41, align 8
  %43 = icmp slt i32 %33, %6
  %44 = icmp slt i32 %31, %5
  %45 = sub nsw i32 %5, %31
  %narrow = select i1 %44, i32 %45, i32 0
  %.093.idx = sext i32 %narrow to i64
  %.093 = getelementptr inbounds i8, ptr %28, i64 %.093.idx
  %46 = sub nsw i32 %6, %33
  %47 = mul nsw i32 %46, %42
  %narrow118 = select i1 %43, i32 %47, i32 0
  %.1.idx = sext i32 %narrow118 to i64
  %.1 = getelementptr inbounds i8, ptr %.093, i64 %.1.idx
  %48 = sub i32 %.098, %.094
  %49 = sub nsw i32 %.097, %.095
  %50 = load ptr, ptr %20, align 8
  %51 = ptrtoint ptr %50 to i64
  %52 = sext i32 %.095 to i64
  %53 = mul nsw i64 %52, %21
  %54 = sext i32 %.094 to i64
  %55 = shl nsw i64 %54, 2
  %56 = add nsw i64 %53, %55
  %57 = add nsw i64 %56, %51
  %58 = sext i32 %42 to i64
  %smax = tail call i32 @llvm.smax.i32(i32 %48, i32 1)
  %wide.trip.count = zext nneg i32 %smax to i64
  br label %59

59:                                               ; preds = %106, %40
  %.099 = phi i32 [ %49, %40 ], [ %109, %106 ]
  %.2 = phi ptr [ %.1, %40 ], [ %108, %106 ]
  %.092.in = phi i64 [ %57, %40 ], [ %107, %106 ]
  %.092 = inttoptr i64 %.092.in to ptr
  br label %60

60:                                               ; preds = %105, %59
  %indvars.iv = phi i64 [ %indvars.iv.next, %105 ], [ 0, %59 ]
  %61 = getelementptr inbounds i8, ptr %.2, i64 %indvars.iv
  %62 = load i8, ptr %61, align 1
  switch i8 %62, label %63 [
    i8 0, label %105
    i8 -1, label %103
  ]

63:                                               ; preds = %60
  %64 = xor i8 %62, -1
  %65 = getelementptr inbounds i32, ptr %.092, i64 %indvars.iv
  %66 = load i32, ptr %65, align 4
  %67 = lshr i32 %66, 8
  %68 = and i32 %67, 255
  %69 = lshr i32 %66, 16
  %70 = and i32 %69, 255
  %71 = lshr i32 %66, 24
  %72 = zext i8 %64 to i64
  %73 = zext nneg i32 %71 to i64
  %74 = getelementptr inbounds [256 x [256 x i8]], ptr @mul8table, i64 0, i64 %72, i64 %73
  %75 = load i8, ptr %74, align 1
  %76 = zext i8 %75 to i32
  %77 = zext i8 %62 to i64
  %78 = getelementptr inbounds [256 x [256 x i8]], ptr @mul8table, i64 0, i64 %77, i64 %22
  %79 = load i8, ptr %78, align 1
  %80 = zext i8 %79 to i32
  %81 = add nuw nsw i32 %80, %76
  %82 = zext nneg i32 %70 to i64
  %83 = getelementptr inbounds [256 x [256 x i8]], ptr @mul8table, i64 0, i64 %72, i64 %82
  %84 = load i8, ptr %83, align 1
  %85 = zext i8 %84 to i32
  %86 = getelementptr inbounds [256 x [256 x i8]], ptr @mul8table, i64 0, i64 %77, i64 %23
  %87 = load i8, ptr %86, align 1
  %88 = zext i8 %87 to i32
  %89 = add nuw nsw i32 %88, %85
  %90 = zext nneg i32 %68 to i64
  %91 = getelementptr inbounds [256 x [256 x i8]], ptr @mul8table, i64 0, i64 %72, i64 %90
  %92 = load i8, ptr %91, align 1
  %93 = zext i8 %92 to i32
  %94 = getelementptr inbounds [256 x [256 x i8]], ptr @mul8table, i64 0, i64 %77, i64 %24
  %95 = load i8, ptr %94, align 1
  %96 = zext i8 %95 to i32
  %97 = add nuw nsw i32 %96, %93
  %98 = shl nuw nsw i32 %81, 16
  %99 = shl nuw nsw i32 %89, 8
  %100 = or i32 %99, %98
  %101 = or i32 %100, %97
  %102 = shl i32 %101, 8
  store i32 %102, ptr %65, align 4
  br label %105

103:                                              ; preds = %60
  %104 = getelementptr inbounds i32, ptr %.092, i64 %indvars.iv
  store i32 %3, ptr %104, align 4
  br label %105

105:                                              ; preds = %60, %63, %103
  %indvars.iv.next = add nuw nsw i64 %indvars.iv, 1
  %exitcond.not = icmp eq i64 %indvars.iv.next, %wide.trip.count
  br i1 %exitcond.not, label %106, label %60, !llvm.loop !61

106:                                              ; preds = %105
  %107 = add nsw i64 %.092.in, %21
  %108 = getelementptr inbounds i8, ptr %.2, i64 %58
  %109 = add nsw i32 %.099, -1
  %110 = icmp sgt i32 %.099, 1
  br i1 %110, label %59, label %.loopexit, !llvm.loop !62

.loopexit:                                        ; preds = %106, %29, %25
  %indvars.iv.next122 = add nuw nsw i64 %indvars.iv121, 1
  %exitcond125.not = icmp eq i64 %indvars.iv.next122, %wide.trip.count124
  br i1 %exitcond125.not, label %._crit_edge, label %25, !llvm.loop !63

._crit_edge:                                      ; preds = %.loopexit, %11
  ret void
}